; Function Attrs: mustprogress nounwind uwtable
define internal noundef float @_ZN5faiss12_GLOBAL__N_114FlatHammingDisINS_16HammingComputer4EE13symmetric_disEll(ptr nocapture noundef nonnull readonly align 8 dereferenceable(36) %0, i64 noundef %1, i64 noundef %2) unnamed_addr #0 align 2 {
  %4 = alloca %"struct.faiss::HammingComputerDefault", align 8
  %5 = getelementptr inbounds i8, ptr %0, i64 16
  %6 = load ptr, ptr %5, align 8
  %7 = getelementptr inbounds i8, ptr %0, i64 8
  %8 = load i32, ptr %7, align 8
  %9 = sext i32 %8 to i64
  %10 = mul nsw i64 %9, %2
  %11 = getelementptr inbounds i8, ptr %6, i64 %10
  store ptr %11, ptr %4, align 8
  %12 = sdiv i32 %8, 8
  %13 = getelementptr inbounds i8, ptr %4, i64 8
  store i32 %12, ptr %13, align 8
  %14 = srem i32 %8, 8
  %15 = getelementptr inbounds i8, ptr %4, i64 12
  store i32 %14, ptr %15, align 4
  %16 = mul nsw i64 %9, %1
  %17 = getelementptr inbounds i8, ptr %6, i64 %16
  %18 = call noundef i32 @_ZNK5faiss22HammingComputerDefault7hammingEPKh(ptr noundef nonnull align 8 dereferenceable(16) %4, ptr noundef %17)
  %19 = sitofp i32 %18 to float
  ret float %19
}